; Function Attrs: mustprogress uwtable
define hidden noundef double @_ZN6cvtest9ArrayTest23get_success_error_levelEiii(ptr noundef nonnull readonly align 8 captures(none) dereferenceable(136) %0, i32 %1, i32 noundef %2, i32 noundef %3) unnamed_addr #4 align 2 personality ptr @__gxx_personality_v0 {
  %5 = alloca %"class.std::__cxx11::basic_string", align 8
  %6 = alloca %"class.std::allocator", align 1
  %7 = getelementptr inbounds nuw i8, ptr %0, i64 72
  %8 = sext i32 %2 to i64
  %9 = load ptr, ptr %7, align 8, !tbaa !43
  %10 = getelementptr inbounds nuw %"class.std::vector.8", ptr %9, i64 %8
  %11 = sext i32 %3 to i64
  %12 = load ptr, ptr %10, align 8, !tbaa !45
  %13 = getelementptr inbounds nuw ptr, ptr %12, i64 %11
  %14 = load ptr, ptr %13, align 8, !tbaa !92
  %15 = tail call i32 @cvGetElemType(ptr noundef %14)
  %16 = add i32 %2, -1
  %or.cond = icmp ult i32 %16, 2
  br i1 %or.cond, label %27, label %17

17:                                               ; preds = %4
  call void @llvm.lifetime.start.p0(i64 32, ptr nonnull %5) #22
  call void @llvm.lifetime.start.p0(i64 1, ptr nonnull %6) #22
  call void @_ZNSt7__cxx1112basic_stringIcSt11char_traitsIcESaIcEEC2EPKcRKS3_(ptr noundef nonnull align 8 dereferenceable(32) %5, ptr noundef nonnull @.str.23, ptr noundef nonnull align 1 dereferenceable(1) %6)
  invoke void @_ZN2cv5errorEiRKNSt7__cxx1112basic_stringIcSt11char_traitsIcESaIcEEEPKcS9_i(i32 noundef -215, ptr noundef nonnull align 8 dereferenceable(32) %5, ptr noundef nonnull @__func__._ZN6cvtest9ArrayTest23get_success_error_levelEiii, ptr noundef nonnull @.str.24, i32 noundef 271) #25
          to label %18 unwind label %19

18:                                               ; preds = %17
  unreachable

19:                                               ; preds = %17
  %20 = landingpad { ptr, i32 }
          cleanup
  %21 = load ptr, ptr %5, align 8, !tbaa !120
  %22 = getelementptr inbounds nuw i8, ptr %5, i64 16
  %23 = icmp eq ptr %21, %22
  br i1 %23, label %_ZNKSt7__cxx1112basic_stringIcSt11char_traitsIcESaIcEE11_M_is_localEv.exit.thread.i.i, label %_ZNKSt7__cxx1112basic_stringIcSt11char_traitsIcESaIcEE11_M_is_localEv.exit.i.i

_ZNKSt7__cxx1112basic_stringIcSt11char_traitsIcESaIcEE11_M_is_localEv.exit.thread.i.i: ; preds = %19
  %24 = getelementptr inbounds nuw i8, ptr %5, i64 8
  %25 = load i64, ptr %24, align 8, !tbaa !121
  %26 = icmp ult i64 %25, 16
  call void @llvm.assume(i1 %26)
  br label %_ZNSt7__cxx1112basic_stringIcSt11char_traitsIcESaIcEED2Ev.exit

_ZNKSt7__cxx1112basic_stringIcSt11char_traitsIcESaIcEE11_M_is_localEv.exit.i.i: ; preds = %19
  call void @_ZdlPv(ptr noundef %21) #23
  br label %_ZNSt7__cxx1112basic_stringIcSt11char_traitsIcESaIcEED2Ev.exit

_ZNSt7__cxx1112basic_stringIcSt11char_traitsIcESaIcEED2Ev.exit: ; preds = %_ZNKSt7__cxx1112basic_stringIcSt11char_traitsIcESaIcEE11_M_is_localEv.exit.i.i, %_ZNKSt7__cxx1112basic_stringIcSt11char_traitsIcESaIcEE11_M_is_localEv.exit.thread.i.i
  call void @llvm.lifetime.end.p0(i64 1, ptr nonnull %6) #22
  call void @llvm.lifetime.end.p0(i64 32, ptr nonnull %5) #22
  resume { ptr, i32 } %20

27:                                               ; preds = %4
  %28 = and i32 %15, 7
  %29 = icmp samesign ult i32 %28, 5
  %30 = icmp eq i32 %28, 5
  %31 = select i1 %30, double 0x3EE9000000000000, double 0x3D73880000000000
  %32 = select i1 %29, double 0.000000e+00, double %31
  ret double %32
}